	.text
	.intel_syntax noprefix
	.file	"perftest3_two.c"
	.globl	main                            # -- Begin function main
	.p2align	4, 0x90
	.type	main,@function
main:                                   # @main
.Lfunc_begin0:
	.file	0 "/home/christian/C-To-Assembly-Tests/scripts" "../src/perftest3_two.c" md5 0xf91ed9eea4db17f16b6b9cbb77c35e39
	.loc	0 22 0                          # ../src/perftest3_two.c:22:0
	.cfi_startproc
# %bb.0:
	push	rbp
	.cfi_def_cfa_offset 16
	.cfi_offset rbp, -16
	mov	rbp, rsp
	.cfi_def_cfa_register rbp
	sub	rsp, 32
	mov	dword ptr [rbp - 4], 0
.Ltmp0:
	.loc	0 23 12 prologue_end            # ../src/perftest3_two.c:23:12
	mov	rax, qword ptr [.L__const.main.data]
	mov	qword ptr [rbp - 16], rax
	mov	eax, dword ptr [.L__const.main.data+8]
	mov	dword ptr [rbp - 8], eax
	.loc	0 31 5                          # ../src/perftest3_two.c:31:5
	mov	rax, qword ptr [rbp - 16]
	mov	qword ptr [rbp - 32], rax
	mov	eax, dword ptr [rbp - 8]
	mov	dword ptr [rbp - 24], eax
	mov	rdi, qword ptr [rbp - 32]
	mov	esi, dword ptr [rbp - 24]
	call	print_struct
	.loc	0 33 5                          # ../src/perftest3_two.c:33:5
	xor	eax, eax
	add	rsp, 32
	pop	rbp
	.cfi_def_cfa rsp, 8
	ret
.Ltmp1:
.Lfunc_end0:
	.size	main, .Lfunc_end0-main
	.cfi_endproc
                                        # -- End function
	.p2align	4, 0x90                         # -- Begin function print_struct
	.type	print_struct,@function
print_struct:                           # @print_struct
.Lfunc_begin1:
	.loc	0 15 0                          # ../src/perftest3_two.c:15:0
	.cfi_startproc
# %bb.0:
	push	rbp
	.cfi_def_cfa_offset 16
	.cfi_offset rbp, -16
	mov	rbp, rsp
	.cfi_def_cfa_register rbp
	sub	rsp, 32
	mov	qword ptr [rbp - 32], rdi
	mov	dword ptr [rbp - 24], esi
	mov	rax, qword ptr [rbp - 32]
	mov	qword ptr [rbp - 16], rax
	mov	eax, dword ptr [rbp - 24]
	mov	dword ptr [rbp - 8], eax
.Ltmp2:
	.loc	0 16 5 prologue_end             # ../src/perftest3_two.c:16:5
	movabs	rdi, offset .L.str
	mov	esi, 12
	mov	al, 0
	call	printf@PLT
	.loc	0 17 36                         # ../src/perftest3_two.c:17:36
	mov	esi, dword ptr [rbp - 16]
	.loc	0 17 5 is_stmt 0                # ../src/perftest3_two.c:17:5
	movabs	rdi, offset .L.str.1
	mov	al, 0
	call	printf@PLT
	.loc	0 18 31 is_stmt 1               # ../src/perftest3_two.c:18:31
	movzx	esi, word ptr [rbp - 12]
	.loc	0 18 5 is_stmt 0                # ../src/perftest3_two.c:18:5
	movabs	rdi, offset .L.str.2
	mov	al, 0
	call	printf@PLT
	.loc	0 19 31 is_stmt 1               # ../src/perftest3_two.c:19:31
	movzx	esi, byte ptr [rbp - 8]
	.loc	0 19 5 is_stmt 0                # ../src/perftest3_two.c:19:5
	movabs	rdi, offset .L.str.3
	mov	al, 0
	call	printf@PLT
	.loc	0 20 1 is_stmt 1                # ../src/perftest3_two.c:20:1
	add	rsp, 32
	pop	rbp
	.cfi_def_cfa rsp, 8
	ret
.Ltmp3:
.Lfunc_end1:
	.size	print_struct, .Lfunc_end1-print_struct
	.cfi_endproc
                                        # -- End function
	.type	.L__const.main.data,@object     # @__const.main.data
	.section	.rodata,"a",@progbits
	.p2align	2
.L__const.main.data:
	.long	1235123                         # 0x12d8b3
	.short	42321                           # 0xa551
	.zero	2
	.byte	250                             # 0xfa
	.zero	3
	.size	.L__const.main.data, 12

	.type	.L.str,@object                  # @.str
	.section	.rodata.str1.1,"aMS",@progbits,1
.L.str:
	.asciz	"Sizeof struct => %lu.\n"
	.size	.L.str, 23

	.type	.L.str.1,@object                # @.str.1
.L.str.1:
	.asciz	"Field 1 => %u\n"
	.size	.L.str.1, 15

	.type	.L.str.2,@object                # @.str.2
.L.str.2:
	.asciz	"Field 2 => %d\n"
	.size	.L.str.2, 15

	.type	.L.str.3,@object                # @.str.3
.L.str.3:
	.asciz	"Field 3 => %u\n"
	.size	.L.str.3, 15

	.file	1 "/usr/include/asm-generic" "int-ll64.h" md5 0xb810f270733e106319b67ef512c6246e
	.section	".note.GNU-stack","",@progbits