	.text
	.file	"perftest2_two.c"
	.globl	main                            # -- Begin function main
	.p2align	4, 0x90
	.type	main,@function
main:                                   # @main
.Lfunc_begin0:
	.file	0 "/home/christian/C-To-Assembly-Tests/scripts" "../src/perftest2_two.c" md5 0x62ec0bd3b6ba7b22a747f1e878e82196
	.loc	0 14 0                          # ../src/perftest2_two.c:14:0
	.cfi_startproc
# %bb.0:
	pushq	%rbp
	.cfi_def_cfa_offset 16
	.cfi_offset %rbp, -16
	movq	%rsp, %rbp
	.cfi_def_cfa_register %rbp
	subq	$224, %rsp
	movl	$0, -4(%rbp)
.Ltmp0:
	.loc	0 15 18 prologue_end            # ../src/perftest2_two.c:15:18
	leaq	-224(%rbp), %rdi
	xorl	%esi, %esi
	movl	$216, %edx
	callq	memset@PLT
	.loc	0 16 17                         # ../src/perftest2_two.c:16:17
	movq	$1, -224(%rbp)
	.loc	0 17 17                         # ../src/perftest2_two.c:17:17
	movq	$555555, -152(%rbp)             # imm = 0x87A23
	.loc	0 18 17                         # ../src/perftest2_two.c:18:17
	movl	$32134, -144(%rbp)              # imm = 0x7D86
	.loc	0 19 17                         # ../src/perftest2_two.c:19:17
	movb	$-6, -140(%rbp)
	.loc	0 21 5                          # ../src/perftest2_two.c:21:5
	leaq	-224(%rbp), %rdi
	callq	print_struct
	.loc	0 23 5                          # ../src/perftest2_two.c:23:5
	xorl	%eax, %eax
	addq	$224, %rsp
	popq	%rbp
	.cfi_def_cfa %rsp, 8
	retq
.Ltmp1:
.Lfunc_end0:
	.size	main, .Lfunc_end0-main
	.cfi_endproc
                                        # -- End function
	.p2align	4, 0x90                         # -- Begin function print_struct
	.type	print_struct,@function
print_struct:                           # @print_struct
.Lfunc_begin1:
	.loc	0 7 0                           # ../src/perftest2_two.c:7:0
	.cfi_startproc
# %bb.0:
	pushq	%rbp
	.cfi_def_cfa_offset 16
	.cfi_offset %rbp, -16
	movq	%rsp, %rbp
	.cfi_def_cfa_register %rbp
	subq	$16, %rsp
	movq	%rdi, -8(%rbp)
.Ltmp2:
	.loc	0 8 33 prologue_end             # ../src/perftest2_two.c:8:33
	movq	-8(%rbp), %rax
	.loc	0 8 39 is_stmt 0                # ../src/perftest2_two.c:8:39
	movq	(%rax), %rsi
	.loc	0 8 5                           # ../src/perftest2_two.c:8:5
	movabsq	$.L.str, %rdi
	movb	$0, %al
	callq	printf@PLT
	.loc	0 9 33 is_stmt 1                # ../src/perftest2_two.c:9:33
	movq	-8(%rbp), %rax
	.loc	0 9 39 is_stmt 0                # ../src/perftest2_two.c:9:39
	movq	72(%rax), %rsi
	.loc	0 9 5                           # ../src/perftest2_two.c:9:5
	movabsq	$.L.str.1, %rdi
	movb	$0, %al
	callq	printf@PLT
	.loc	0 10 31 is_stmt 1               # ../src/perftest2_two.c:10:31
	movq	-8(%rbp), %rax
	.loc	0 10 37 is_stmt 0               # ../src/perftest2_two.c:10:37
	movl	80(%rax), %esi
	.loc	0 10 5                          # ../src/perftest2_two.c:10:5
	movabsq	$.L.str.2, %rdi
	movb	$0, %al
	callq	printf@PLT
	.loc	0 11 32 is_stmt 1               # ../src/perftest2_two.c:11:32
	movq	-8(%rbp), %rax
	movzbl	84(%rax), %esi
	.loc	0 11 5 is_stmt 0                # ../src/perftest2_two.c:11:5
	movabsq	$.L.str.3, %rdi
	movb	$0, %al
	callq	printf@PLT
	.loc	0 12 1 is_stmt 1                # ../src/perftest2_two.c:12:1
	addq	$16, %rsp
	popq	%rbp
	.cfi_def_cfa %rsp, 8
	retq
.Ltmp3:
.Lfunc_end1:
	.size	print_struct, .Lfunc_end1-print_struct
	.cfi_endproc
                                        # -- End function
	.type	.L.str,@object                  # @.str
	.section	.rodata.str1.1,"aMS",@progbits,1
.L.str:
	.asciz	"Field 1 => %llu\n"
	.size	.L.str, 17

	.type	.L.str.1,@object                # @.str.1
.L.str.1:
	.asciz	"Field 3 => %llu\n"
	.size	.L.str.1, 17

	.type	.L.str.2,@object                # @.str.2
.L.str.2:
	.asciz	"Field 4 => %u\n"
	.size	.L.str.2, 15

	.type	.L.str.3,@object                # @.str.3
.L.str.3:
	.asciz	"Field 5 => %d.\n"
	.size	.L.str.3, 16

	.file	1 "/usr/include/asm-generic" "int-ll64.h" md5 0xb810f270733e106319b67ef512c6246e
	.file	2 "../src" "perftest2.h" md5 0xd245a50318144ab68da8f993e59f0cc9
	.section	".note.GNU-stack","",@progbits