	.file	"perftest2_two.c"
	.text
	.section	.rodata
.LC0:
	.string	"Field 1 => %llu\n"
.LC1:
	.string	"Field 3 => %llu\n"
.LC2:
	.string	"Field 4 => %u\n"
.LC3:
	.string	"Field 5 => %d.\n"
	.text
	.type	print_struct, @function
print_struct:
.LFB0:
	.cfi_startproc
	pushq	%rbp
	.cfi_def_cfa_offset 16
	.cfi_offset 6, -16
	movq	%rsp, %rbp
	.cfi_def_cfa_register 6
	subq	$16, %rsp
	movq	%rdi, -8(%rbp)
	movq	-8(%rbp), %rax
	movq	(%rax), %rax
	movq	%rax, %rsi
	leaq	.LC0(%rip), %rax
	movq	%rax, %rdi
	movl	$0, %eax
	call	printf@PLT
	movq	-8(%rbp), %rax
	movq	72(%rax), %rax
	movq	%rax, %rsi
	leaq	.LC1(%rip), %rax
	movq	%rax, %rdi
	movl	$0, %eax
	call	printf@PLT
	movq	-8(%rbp), %rax
	movl	80(%rax), %eax
	movl	%eax, %esi
	leaq	.LC2(%rip), %rax
	movq	%rax, %rdi
	movl	$0, %eax
	call	printf@PLT
	movq	-8(%rbp), %rax
	movzbl	84(%rax), %eax
	movzbl	%al, %eax
	movl	%eax, %esi
	leaq	.LC3(%rip), %rax
	movq	%rax, %rdi
	movl	$0, %eax
	call	printf@PLT
	nop
	leave
	.cfi_def_cfa 7, 8
	ret
	.cfi_endproc
.LFE0:
	.size	print_struct, .-print_struct
	.globl	main
	.type	main, @function
main:
.LFB1:
	.cfi_startproc
	pushq	%rbp
	.cfi_def_cfa_offset 16
	.cfi_offset 6, -16
	movq	%rsp, %rbp
	.cfi_def_cfa_register 6
	subq	$224, %rsp
	leaq	-224(%rbp), %rdx
	movl	$0, %eax
	movl	$27, %ecx
	movq	%rdx, %rdi
	rep stosq
	movq	$1, -224(%rbp)
	movq	$555555, -152(%rbp)
	movl	$32134, -144(%rbp)
	movb	$-6, -140(%rbp)
	leaq	-224(%rbp), %rax
	movq	%rax, %rdi
	call	print_struct
	movl	$0, %eax
	leave
	.cfi_def_cfa 7, 8
	ret
	.cfi_endproc
.LFE1:
	.size	main, .-main
	.ident	"GCC: (Debian 12.2.0-14) 12.2.0"
	.section	.note.GNU-stack,"",@progbits
