	.file	"perftest3_one.c"
	.text
	.section	.rodata
.LC0:
	.string	"Sizeof struct => %lu.\n"
.LC1:
	.string	"Field 1 => %u\n"
.LC2:
	.string	"Field 2 => %d\n"
.LC3:
	.string	"Field 3 => %u\n"
	.text
	.type	print_struct, @function
print_struct:
.LFB0:
	.cfi_startproc
	pushq	%rbp
	.cfi_def_cfa_offset 16
	.cfi_offset 6, -16
	movq	%rsp, %rbp
	.cfi_def_cfa_register 6
	subq	$16, %rsp
	movq	%rdi, -8(%rbp)
	movl	$8, %esi
	leaq	.LC0(%rip), %rax
	movq	%rax, %rdi
	movl	$0, %eax
	call	printf@PLT
	movl	-8(%rbp), %eax
	movl	%eax, %esi
	leaq	.LC1(%rip), %rax
	movq	%rax, %rdi
	movl	$0, %eax
	call	printf@PLT
	movzwl	-4(%rbp), %eax
	movzwl	%ax, %eax
	movl	%eax, %esi
	leaq	.LC2(%rip), %rax
	movq	%rax, %rdi
	movl	$0, %eax
	call	printf@PLT
	movzbl	-2(%rbp), %eax
	movzbl	%al, %eax
	movl	%eax, %esi
	leaq	.LC3(%rip), %rax
	movq	%rax, %rdi
	movl	$0, %eax
	call	printf@PLT
	nop
	leave
	.cfi_def_cfa 7, 8
	ret
	.cfi_endproc
.LFE0:
	.size	print_struct, .-print_struct
	.globl	main
	.type	main, @function
main:
.LFB1:
	.cfi_startproc
	pushq	%rbp
	.cfi_def_cfa_offset 16
	.cfi_offset 6, -16
	movq	%rsp, %rbp
	.cfi_def_cfa_register 6
	subq	$16, %rsp
	movq	$0, -8(%rbp)
	movl	$1235123, -8(%rbp)
	movw	$-23215, -4(%rbp)
	movb	$-6, -2(%rbp)
	movq	-8(%rbp), %rax
	movq	%rax, %rdi
	call	print_struct
	movl	$0, %eax
	leave
	.cfi_def_cfa 7, 8
	ret
	.cfi_endproc
.LFE1:
	.size	main, .-main
	.ident	"GCC: (Debian 12.2.0-14) 12.2.0"
	.section	.note.GNU-stack,"",@progbits
