	.file	"perftest3_one.c"
	.text
.Ltext0:
	.file 0 "/home/christian/C-To-Assembly-Tests/scripts" "../src/perftest3_one.c"
	.section	.rodata
.LC0:
	.string	"Sizeof struct => %lu.\n"
.LC1:
	.string	"Field 1 => %u\n"
.LC2:
	.string	"Field 2 => %d\n"
.LC3:
	.string	"Field 3 => %u\n"
	.text
	.type	print_struct, @function
print_struct:
.LFB0:
	.file 1 "../src/perftest3_one.c"
	.loc 1 13 65
	.cfi_startproc
	pushq	%rbp
	.cfi_def_cfa_offset 16
	.cfi_offset 6, -16
	movq	%rsp, %rbp
	.cfi_def_cfa_register 6
	subq	$16, %rsp
	movq	%rdi, -8(%rbp)
	.loc 1 14 5
	movl	$8, %esi
	leaq	.LC0(%rip), %rax
	movq	%rax, %rdi
	movl	$0, %eax
	call	printf@PLT
	.loc 1 15 5
	movl	-8(%rbp), %eax
	movl	%eax, %esi
	leaq	.LC1(%rip), %rax
	movq	%rax, %rdi
	movl	$0, %eax
	call	printf@PLT
	.loc 1 16 35
	movzwl	-4(%rbp), %eax
	.loc 1 16 5
	movzwl	%ax, %eax
	movl	%eax, %esi
	leaq	.LC2(%rip), %rax
	movq	%rax, %rdi
	movl	$0, %eax
	call	printf@PLT
	.loc 1 17 35
	movzbl	-2(%rbp), %eax
	.loc 1 17 5
	movzbl	%al, %eax
	movl	%eax, %esi
	leaq	.LC3(%rip), %rax
	movq	%rax, %rdi
	movl	$0, %eax
	call	printf@PLT
	.loc 1 18 1
	nop
	leave
	.cfi_def_cfa 7, 8
	ret
	.cfi_endproc
.LFE0:
	.size	print_struct, .-print_struct
	.globl	main
	.type	main, @function
main:
.LFB1:
	.loc 1 20 12
	.cfi_startproc
	pushq	%rbp
	.cfi_def_cfa_offset 16
	.cfi_offset 6, -16
	movq	%rsp, %rbp
	.cfi_def_cfa_register 6
	subq	$16, %rsp
	.loc 1 21 12
	movq	$0, -8(%rbp)
	.loc 1 22 17
	movl	$1235123, -8(%rbp)
	.loc 1 23 17
	movw	$-23215, -4(%rbp)
	.loc 1 24 17
	movb	$-6, -2(%rbp)
	.loc 1 26 5
	movq	-8(%rbp), %rax
	movq	%rax, %rdi
	call	print_struct
	.loc 1 28 12
	movl	$0, %eax
	.loc 1 29 1
	leave
	.cfi_def_cfa 7, 8
	ret
	.cfi_endproc
.LFE1:
	.size	main, .-main
.Letext0:
	.file 2 "/usr/include/asm-generic/int-ll64.h"
	.file 3 "/usr/include/stdio.h"
	.section	.note.GNU-stack,"",@progbits
