	.file	"perftest2_two.c"
	.text
.Ltext0:
	.file 0 "/home/christian/C-To-Assembly-Tests/scripts" "../src/perftest2_two.c"
	.section	.rodata.str1.1,"aMS",@progbits,1
.LC0:
	.string	"Field 1 => %llu\n"
.LC1:
	.string	"Field 3 => %llu\n"
.LC2:
	.string	"Field 4 => %u\n"
.LC3:
	.string	"Field 5 => %d.\n"
	.text
	.type	print_struct, @function
print_struct:
.LVL0:
.LFB11:
	.file 1 "../src/perftest2_two.c"
	.loc 1 7 72 view -0
	.cfi_startproc
	.loc 1 7 72 is_stmt 0 view .LVU1
	pushq	%rbx
	.cfi_def_cfa_offset 16
	.cfi_offset 3, -16
	movq	%rdi, %rbx
	.loc 1 8 5 is_stmt 1 view .LVU2
	movq	(%rdi), %rsi
	leaq	.LC0(%rip), %rdi
.LVL1:
	.loc 1 8 5 is_stmt 0 view .LVU3
	movl	$0, %eax
	call	printf@PLT
.LVL2:
	.loc 1 9 5 is_stmt 1 view .LVU4
	movq	72(%rbx), %rsi
	leaq	.LC1(%rip), %rdi
	movl	$0, %eax
	call	printf@PLT
.LVL3:
	.loc 1 10 5 view .LVU5
	movl	80(%rbx), %esi
	leaq	.LC2(%rip), %rdi
	movl	$0, %eax
	call	printf@PLT
.LVL4:
	.loc 1 11 5 view .LVU6
	movzbl	84(%rbx), %esi
	leaq	.LC3(%rip), %rdi
	movl	$0, %eax
	call	printf@PLT
.LVL5:
	.loc 1 12 1 is_stmt 0 view .LVU7
	popq	%rbx
	.cfi_def_cfa_offset 8
.LVL6:
	.loc 1 12 1 view .LVU8
	ret
	.cfi_endproc
.LFE11:
	.size	print_struct, .-print_struct
	.globl	main
	.type	main, @function
main:
.LFB12:
	.loc 1 14 12 is_stmt 1 view -0
	.cfi_startproc
	subq	$232, %rsp
	.cfi_def_cfa_offset 240
	.loc 1 15 5 view .LVU10
	.loc 1 15 18 is_stmt 0 view .LVU11
	leaq	8(%rsp), %rdi
	movl	$26, %ecx
	movl	$0, %eax
	rep stosq
	.loc 1 16 5 is_stmt 1 view .LVU12
	.loc 1 16 17 is_stmt 0 view .LVU13
	movq	$1, (%rsp)
	.loc 1 17 5 is_stmt 1 view .LVU14
	.loc 1 17 17 is_stmt 0 view .LVU15
	movq	$555555, 72(%rsp)
	.loc 1 18 5 is_stmt 1 view .LVU16
	.loc 1 18 17 is_stmt 0 view .LVU17
	movl	$32134, 80(%rsp)
	.loc 1 19 5 is_stmt 1 view .LVU18
	.loc 1 19 17 is_stmt 0 view .LVU19
	movb	$-6, 84(%rsp)
	.loc 1 21 5 is_stmt 1 view .LVU20
	movq	%rsp, %rdi
	call	print_struct
.LVL7:
	.loc 1 23 5 view .LVU21
	.loc 1 24 1 is_stmt 0 view .LVU22
	movl	$0, %eax
	addq	$232, %rsp
	.cfi_def_cfa_offset 8
	ret
	.cfi_endproc
.LFE12:
	.size	main, .-main
.Letext0:
	.file 2 "/usr/include/asm-generic/int-ll64.h"
	.file 3 "../src/perftest2.h"
	.file 4 "/usr/include/stdio.h"
	.section	.note.GNU-stack,"",@progbits
