	.file	"perftest2_one.c"
	.text
.Ltext0:
	.file 0 "/home/christian/C-To-Assembly-Tests/scripts" "../src/perftest2_one.c"
	.section	.rodata.str1.1,"aMS",@progbits,1
.LC0:
	.string	"Field 1 => %llu\n"
.LC1:
	.string	"Field 3 => %llu\n"
.LC2:
	.string	"Field 4 => %u\n"
.LC3:
	.string	"Field 5 => %d.\n"
	.text
	.type	print_struct, @function
print_struct:
.LFB11:
	.file 1 "../src/perftest2_one.c"
	.loc 1 7 71 view -0
	.cfi_startproc
	subq	$8, %rsp
	.cfi_def_cfa_offset 16
	.loc 1 8 5 view .LVU1
	movq	16(%rsp), %rsi
	leaq	.LC0(%rip), %rdi
	movl	$0, %eax
	call	printf@PLT
.LVL0:
	.loc 1 9 5 view .LVU2
	movq	88(%rsp), %rsi
	leaq	.LC1(%rip), %rdi
	movl	$0, %eax
	call	printf@PLT
.LVL1:
	.loc 1 10 5 view .LVU3
	movl	96(%rsp), %esi
	leaq	.LC2(%rip), %rdi
	movl	$0, %eax
	call	printf@PLT
.LVL2:
	.loc 1 11 5 view .LVU4
	movzbl	100(%rsp), %esi
	leaq	.LC3(%rip), %rdi
	movl	$0, %eax
	call	printf@PLT
.LVL3:
	.loc 1 12 1 is_stmt 0 view .LVU5
	addq	$8, %rsp
	.cfi_def_cfa_offset 8
	ret
	.cfi_endproc
.LFE11:
	.size	print_struct, .-print_struct
	.globl	main
	.type	main, @function
main:
.LFB12:
	.loc 1 14 12 is_stmt 1 view -0
	.cfi_startproc
	subq	$232, %rsp
	.cfi_def_cfa_offset 240
	.loc 1 15 5 view .LVU7
	.loc 1 15 18 is_stmt 0 view .LVU8
	leaq	8(%rsp), %rdi
	movl	$26, %ecx
	movl	$0, %eax
	rep stosq
	.loc 1 16 5 is_stmt 1 view .LVU9
	.loc 1 16 17 is_stmt 0 view .LVU10
	movq	$1, (%rsp)
	.loc 1 17 5 is_stmt 1 view .LVU11
	.loc 1 17 17 is_stmt 0 view .LVU12
	movq	$555555, 72(%rsp)
	.loc 1 18 5 is_stmt 1 view .LVU13
	.loc 1 18 17 is_stmt 0 view .LVU14
	movl	$32134, 80(%rsp)
	.loc 1 19 5 is_stmt 1 view .LVU15
	.loc 1 19 17 is_stmt 0 view .LVU16
	movb	$-6, 84(%rsp)
	.loc 1 21 5 is_stmt 1 view .LVU17
	subq	$224, %rsp
	.cfi_def_cfa_offset 464
	movdqa	224(%rsp), %xmm0
	movups	%xmm0, (%rsp)
	movdqa	240(%rsp), %xmm1
	movups	%xmm1, 16(%rsp)
	movdqa	256(%rsp), %xmm2
	movups	%xmm2, 32(%rsp)
	movdqa	272(%rsp), %xmm3
	movups	%xmm3, 48(%rsp)
	movdqa	288(%rsp), %xmm4
	movups	%xmm4, 64(%rsp)
	movdqa	304(%rsp), %xmm5
	movups	%xmm5, 80(%rsp)
	movdqa	320(%rsp), %xmm6
	movups	%xmm6, 96(%rsp)
	movdqa	336(%rsp), %xmm7
	movups	%xmm7, 112(%rsp)
	movdqa	352(%rsp), %xmm0
	movups	%xmm0, 128(%rsp)
	movdqa	368(%rsp), %xmm1
	movups	%xmm1, 144(%rsp)
	movdqa	384(%rsp), %xmm2
	movups	%xmm2, 160(%rsp)
	movdqa	400(%rsp), %xmm3
	movups	%xmm3, 176(%rsp)
	movdqa	416(%rsp), %xmm4
	movups	%xmm4, 192(%rsp)
	movq	432(%rsp), %rax
	movq	%rax, 208(%rsp)
	call	print_struct
.LVL4:
	.loc 1 23 5 view .LVU18
	.loc 1 24 1 is_stmt 0 view .LVU19
	movl	$0, %eax
	addq	$456, %rsp
	.cfi_def_cfa_offset 8
	ret
	.cfi_endproc
.LFE12:
	.size	main, .-main
.Letext0:
	.file 2 "/usr/include/asm-generic/int-ll64.h"
	.file 3 "../src/perftest2.h"
	.file 4 "/usr/include/stdio.h"
	.section	.note.GNU-stack,"",@progbits
