	.text
	.file	"perftest2_two.c"
	.globl	main                            # -- Begin function main
	.p2align	4, 0x90
	.type	main,@function
main:                                   # @main
.Lfunc_begin0:
	.file	0 "/home/christian/C-To-Assembly-Tests/scripts" "../src/perftest2_two.c" md5 0x62ec0bd3b6ba7b22a747f1e878e82196
	.loc	0 14 0                          # ../src/perftest2_two.c:14:0
	.cfi_startproc
# %bb.0:
	subq	$216, %rsp
	.cfi_def_cfa_offset 224
.Ltmp0:
	.loc	0 15 18 prologue_end            # ../src/perftest2_two.c:15:18
	xorps	%xmm0, %xmm0
	movups	%xmm0, 72(%rsp)
	movups	%xmm0, 200(%rsp)
	movups	%xmm0, 184(%rsp)
	movups	%xmm0, 168(%rsp)
	movups	%xmm0, 152(%rsp)
	movups	%xmm0, 136(%rsp)
	movups	%xmm0, 120(%rsp)
	movups	%xmm0, 104(%rsp)
	movups	%xmm0, 88(%rsp)
	movups	%xmm0, 56(%rsp)
	movups	%xmm0, 40(%rsp)
	movups	%xmm0, 24(%rsp)
	movups	%xmm0, 8(%rsp)
	.loc	0 16 17                         # ../src/perftest2_two.c:16:17
	movq	$1, (%rsp)
	.loc	0 17 17                         # ../src/perftest2_two.c:17:17
	movq	$555555, 72(%rsp)               # imm = 0x87A23
	.loc	0 18 17                         # ../src/perftest2_two.c:18:17
	movl	$32134, 80(%rsp)                # imm = 0x7D86
	.loc	0 19 17                         # ../src/perftest2_two.c:19:17
	movb	$-6, 84(%rsp)
	movq	%rsp, %rdi
	.loc	0 21 5                          # ../src/perftest2_two.c:21:5
	callq	print_struct
.Ltmp1:
	.loc	0 23 5                          # ../src/perftest2_two.c:23:5
	xorl	%eax, %eax
	addq	$216, %rsp
	.cfi_def_cfa_offset 8
	retq
.Ltmp2:
.Lfunc_end0:
	.size	main, .Lfunc_end0-main
	.cfi_endproc
                                        # -- End function
	.p2align	4, 0x90                         # -- Begin function print_struct
	.type	print_struct,@function
print_struct:                           # @print_struct
.Lfunc_begin1:
	.loc	0 7 0                           # ../src/perftest2_two.c:7:0
	.cfi_startproc
# %bb.0:
	#DEBUG_VALUE: print_struct:data <- $rdi
	pushq	%rbx
	.cfi_def_cfa_offset 16
	.cfi_offset %rbx, -16
	movq	%rdi, %rbx
.Ltmp3:
	.loc	0 8 39 prologue_end             # ../src/perftest2_two.c:8:39
	movq	(%rdi), %rsi
	.loc	0 8 5 is_stmt 0                 # ../src/perftest2_two.c:8:5
	leaq	.L.str(%rip), %rdi
.Ltmp4:
	#DEBUG_VALUE: print_struct:data <- $rbx
	xorl	%eax, %eax
	callq	printf@PLT
.Ltmp5:
	.loc	0 9 39 is_stmt 1                # ../src/perftest2_two.c:9:39
	movq	72(%rbx), %rsi
	.loc	0 9 5 is_stmt 0                 # ../src/perftest2_two.c:9:5
	leaq	.L.str.1(%rip), %rdi
	xorl	%eax, %eax
	callq	printf@PLT
.Ltmp6:
	.loc	0 10 37 is_stmt 1               # ../src/perftest2_two.c:10:37
	movl	80(%rbx), %esi
	.loc	0 10 5 is_stmt 0                # ../src/perftest2_two.c:10:5
	leaq	.L.str.2(%rip), %rdi
	xorl	%eax, %eax
	callq	printf@PLT
.Ltmp7:
	.loc	0 11 38 is_stmt 1               # ../src/perftest2_two.c:11:38
	movzbl	84(%rbx), %esi
	.loc	0 11 5 is_stmt 0                # ../src/perftest2_two.c:11:5
	leaq	.L.str.3(%rip), %rdi
	xorl	%eax, %eax
	popq	%rbx
.Ltmp8:
	#DEBUG_VALUE: print_struct:data <- [DW_OP_LLVM_entry_value 1] $rdi
	.cfi_def_cfa_offset 8
	jmp	printf@PLT                      # TAILCALL
.Ltmp9:
.Lfunc_end1:
	.size	print_struct, .Lfunc_end1-print_struct
	.cfi_endproc
                                        # -- End function
	.type	.L.str,@object                  # @.str
	.section	.rodata.str1.1,"aMS",@progbits,1
.L.str:
	.asciz	"Field 1 => %llu\n"
	.size	.L.str, 17

	.type	.L.str.1,@object                # @.str.1
.L.str.1:
	.asciz	"Field 3 => %llu\n"
	.size	.L.str.1, 17

	.type	.L.str.2,@object                # @.str.2
.L.str.2:
	.asciz	"Field 4 => %u\n"
	.size	.L.str.2, 15

	.type	.L.str.3,@object                # @.str.3
.L.str.3:
	.asciz	"Field 5 => %d.\n"
	.size	.L.str.3, 16

	.file	1 "/usr/include/asm-generic" "int-ll64.h" md5 0xb810f270733e106319b67ef512c6246e
	.file	2 "../src" "perftest2.h" md5 0xd245a50318144ab68da8f993e59f0cc9
	.section	".note.GNU-stack","",@progbits
	.addrsig